target datalayout = "e-m:e-p270:32:32-p271:32:32-p272:64:64-i64:64-i128:128-f80:128-n8:16:32:64-S128"
target triple = "x86_64-pc-linux-gnu"

%struct.AV1PixelRect = type { i32, i32, i32, i32 }
%struct.AV1Common = type { %struct.CurrentFrame, %struct.aom_internal_error_info, i32, i32, i32, i32, i32, i32, i8, i8, [33 x i32], i32, ptr, ptr, [8 x i32], %struct.scale_factors, [8 x %struct.scale_factors], [8 x ptr], i32, i32, i32, %struct.FeatureFlags, %struct.CommonModeInfoParams, %struct.CommonQuantParams, %struct.segmentation, ptr, [8 x i8], %struct.loop_filter_info_n, %struct.loopfilter, [3 x %struct.RestorationInfo], ptr, ptr, %struct.yv12_buffer_config, %struct.CdefInfo, %struct.aom_film_grain_t, %struct.DeltaQInfo, [8 x %struct.WarpedMotionParams], %struct.SequenceHeader, ptr, ptr, %struct.CommonTileParams, ptr, %struct.CommonContexts, i32, [8 x i32], ptr, i32, [8 x i32], [8 x i8], i32, i32, i32, i32 }
%struct.CurrentFrame = type { i8, i8, i32, i32, i32, %struct.SkipModeInfo, i32, i32 }
%struct.SkipModeInfo = type { i32, i32, i32, i32 }
%struct.aom_internal_error_info = type { i32, i32, [200 x i8], i32, [1 x %struct.__jmp_buf_tag] }
%struct.__jmp_buf_tag = type { [8 x i64], i32, %struct.__sigset_t }
%struct.__sigset_t = type { [16 x i64] }
%struct.scale_factors = type { i32, i32, i32, i32, ptr, ptr }
%struct.FeatureFlags = type { i8, i8, i8, i8, i8, i8, i8, i8, i8, i8, i8, i8, i8, i8, i32, i32, i8 }
%struct.CommonModeInfoParams = type { i32, i32, i32, i32, i32, ptr, i32, i32, i8, ptr, i32, i32, ptr, ptr, ptr, ptr }
%struct.CommonQuantParams = type { i32, i32, i32, i32, i32, i32, [8 x [2 x i16]], [8 x [2 x i16]], [8 x [2 x i16]], [16 x [3 x [19 x ptr]]], [16 x [3 x [19 x ptr]]], [8 x [19 x ptr]], [8 x [19 x ptr]], [8 x [19 x ptr]], i8, i32, i32, i32 }
%struct.segmentation = type { i8, i8, i8, i8, [8 x [8 x i16]], [8 x i32], i32, i8 }
%struct.loop_filter_info_n = type { [64 x %struct.loop_filter_thresh], [3 x [8 x [2 x [8 x [2 x i8]]]]] }
%struct.loop_filter_thresh = type { [16 x i8], [16 x i8], [16 x i8] }
%struct.loopfilter = type { [2 x i32], i32, i32, i32, i8, i8, [8 x i8], [2 x i8], i32 }
%struct.RestorationInfo = type { i32, i32, i32, i32, i32, ptr, %struct.RestorationStripeBoundaries, i32 }
%struct.RestorationStripeBoundaries = type { ptr, ptr, i32, i32 }
%struct.yv12_buffer_config = type { %union.anon, %union.anon.0, %union.anon.2, %union.anon.4, %union.anon.6, %union.anon.8, i32, [3 x ptr], ptr, i32, ptr, i64, i32, i64, i32, i32, i32, i32, i32, i32, i8, i32, i32, i32, i32, i32, i32, ptr }
%union.anon = type { %struct.anon }
%struct.anon = type { i32, i32 }
%union.anon.0 = type { %struct.anon.1 }
%struct.anon.1 = type { i32, i32 }
%union.anon.2 = type { %struct.anon.3 }
%struct.anon.3 = type { i32, i32 }
%union.anon.4 = type { %struct.anon.5 }
%struct.anon.5 = type { i32, i32 }
%union.anon.6 = type { %struct.anon.7 }
%struct.anon.7 = type { i32, i32 }
%union.anon.8 = type { %struct.anon.9 }
%struct.anon.9 = type { ptr, ptr, ptr }
%struct.CdefInfo = type { i32, i32, [16 x i32], [16 x i32], i32 }
%struct.aom_film_grain_t = type { i32, i32, [14 x [2 x i32]], i32, [10 x [2 x i32]], i32, [10 x [2 x i32]], i32, i32, i32, [24 x i32], [25 x i32], [25 x i32], i32, i32, i32, i32, i32, i32, i32, i32, i32, i32, i32, i32, i16 }
%struct.DeltaQInfo = type { i32, i32, i32, i32, i32 }
%struct.WarpedMotionParams = type { [8 x i32], i16, i16, i16, i16, i8, i8 }
%struct.SequenceHeader = type { i32, i32, i32, i32, i8, i32, i32, i8, i32, i32, %struct.OrderHintInfo, i8, i8, i8, i8, i8, i8, i8, i8, i8, i8, i8, i8, i8, i8, i32, i8, i8, i32, i32, i32, i32, i32, i32, i32, i8, i8, i32, [32 x i32], i32, %struct.aom_timing, i8, %struct.aom_dec_model_info, i8, [32 x i8], [32 x i8], [33 x %struct.aom_dec_model_op_parameters] }
%struct.OrderHintInfo = type { i32, i32, i32, i32 }
%struct.aom_timing = type { i32, i32, i32, i32 }
%struct.aom_dec_model_info = type { i32, i32, i32, i32 }
%struct.aom_dec_model_op_parameters = type { i32, i64, i64, i32, i32, i32, i32, i32 }
%struct.CommonTileParams = type { i32, i32, i32, i32, i32, i32, i32, i32, i32, i32, i32, i32, i32, i32, i32, [65 x i32], [65 x i32], i32, i32 }
%struct.CommonContexts = type { ptr, [3 x ptr], ptr, i32, i32, i32 }

@.str = private unnamed_addr constant [34 x i8] c"Failed to allocate rsi->unit_info\00", align 1

; Function Attrs: nounwind uwtable
define hidden i32 @av1_lr_count_units_in_tile(i32 noundef %0, i32 noundef %1) #0 {
  %3 = alloca i32, align 4
  %4 = alloca i32, align 4
  store i32 %0, ptr %3, align 4
  store i32 %1, ptr %4, align 4
  %5 = load i32, ptr %4, align 4
  %6 = load i32, ptr %3, align 4
  %7 = ashr i32 %6, 1
  %8 = add nsw i32 %5, %7
  %9 = load i32, ptr %3, align 4
  %10 = sdiv i32 %8, %9
  %11 = icmp sgt i32 %10, 1
  br i1 %11, label %12, label %19

12:                                               ; preds = %2
  %13 = load i32, ptr %4, align 4
  %14 = load i32, ptr %3, align 4
  %15 = ashr i32 %14, 1
  %16 = add nsw i32 %13, %15
  %17 = load i32, ptr %3, align 4
  %18 = sdiv i32 %16, %17
  br label %20

19:                                               ; preds = %2
  br label %20

20:                                               ; preds = %19, %12
  %21 = phi i32 [ %18, %12 ], [ 1, %19 ]
  ret i32 %21
}

; Function Attrs: nounwind uwtable
define hidden { i64, i64 } @av1_whole_frame_rect(ptr noundef %0, i32 noundef %1) #0 {
  %3 = alloca %struct.AV1PixelRect, align 4
  %4 = alloca ptr, align 8
  %5 = alloca i32, align 4
  %6 = alloca i32, align 4
  %7 = alloca i32, align 4
  store ptr %0, ptr %4, align 8
  store i32 %1, ptr %5, align 4
  %8 = load i32, ptr %5, align 4
  %9 = icmp ne i32 %8, 0
  br i1 %9, label %10, label %16

10:                                               ; preds = %2
  %11 = load ptr, ptr %4, align 8
  %12 = getelementptr inbounds nuw %struct.AV1Common, ptr %11, i32 0, i32 37
  %13 = getelementptr inbounds nuw %struct.SequenceHeader, ptr %12, i32 0, i32 32
  %14 = load i32, ptr %13, align 16
  %15 = icmp ne i32 %14, 0
  br label %16

16:                                               ; preds = %10, %2
  %17 = phi i1 [ false, %2 ], [ %15, %10 ]
  %18 = zext i1 %17 to i32
  store i32 %18, ptr %6, align 4
  %19 = load i32, ptr %5, align 4
  %20 = icmp ne i32 %19, 0
  br i1 %20, label %21, label %27

21:                                               ; preds = %16
  %22 = load ptr, ptr %4, align 8
  %23 = getelementptr inbounds nuw %struct.AV1Common, ptr %22, i32 0, i32 37
  %24 = getelementptr inbounds nuw %struct.SequenceHeader, ptr %23, i32 0, i32 33
  %25 = load i32, ptr %24, align 4
  %26 = icmp ne i32 %25, 0
  br label %27

27:                                               ; preds = %21, %16
  %28 = phi i1 [ false, %16 ], [ %26, %21 ]
  %29 = zext i1 %28 to i32
  store i32 %29, ptr %7, align 4
  %30 = getelementptr inbounds nuw %struct.AV1PixelRect, ptr %3, i32 0, i32 1
  store i32 0, ptr %30, align 4
  %31 = load ptr, ptr %4, align 8
  %32 = getelementptr inbounds nuw %struct.AV1Common, ptr %31, i32 0, i32 3
  %33 = load i32, ptr %32, align 4
  %34 = load i32, ptr %7, align 4
  %35 = shl i32 1, %34
  %36 = ashr i32 %35, 1
  %37 = add nsw i32 %33, %36
  %38 = load i32, ptr %7, align 4
  %39 = ashr i32 %37, %38
  %40 = getelementptr inbounds nuw %struct.AV1PixelRect, ptr %3, i32 0, i32 3
  store i32 %39, ptr %40, align 4
  %41 = getelementptr inbounds nuw %struct.AV1PixelRect, ptr %3, i32 0, i32 0
  store i32 0, ptr %41, align 4
  %42 = load ptr, ptr %4, align 8
  %43 = getelementptr inbounds nuw %struct.AV1Common, ptr %42, i32 0, i32 6
  %44 = load i32, ptr %43, align 8
  %45 = load i32, ptr %6, align 4
  %46 = shl i32 1, %45
  %47 = ashr i32 %46, 1
  %48 = add nsw i32 %44, %47
  %49 = load i32, ptr %6, align 4
  %50 = ashr i32 %48, %49
  %51 = getelementptr inbounds nuw %struct.AV1PixelRect, ptr %3, i32 0, i32 2
  store i32 %50, ptr %51, align 4
  %52 = load { i64, i64 }, ptr %3, align 4
  ret { i64, i64 } %52
}

; Function Attrs: nounwind uwtable
define hidden void @av1_alloc_restoration_struct(ptr noundef %0, ptr noundef %1, i32 noundef %2) #0 {
  %4 = alloca ptr, align 8
  %5 = alloca ptr, align 8
  %6 = alloca i32, align 4
  %7 = alloca %struct.AV1PixelRect, align 4
  %8 = alloca i32, align 4
  %9 = alloca i32, align 4
  %10 = alloca i32, align 4
  %11 = alloca i32, align 4
  %12 = alloca i32, align 4
  %13 = alloca i32, align 4
  %14 = alloca i32, align 4
  store ptr %0, ptr %4, align 8
  store ptr %1, ptr %5, align 8
  store i32 %2, ptr %6, align 4
  %15 = load ptr, ptr %4, align 8
  %16 = load i32, ptr %6, align 4
  %17 = call { i64, i64 } @av1_whole_frame_rect(ptr noundef %15, i32 noundef %16)
  %18 = getelementptr inbounds nuw { i64, i64 }, ptr %7, i32 0, i32 0
  %19 = extractvalue { i64, i64 } %17, 0
  store i64 %19, ptr %18, align 4
  %20 = getelementptr inbounds nuw { i64, i64 }, ptr %7, i32 0, i32 1
  %21 = extractvalue { i64, i64 } %17, 1
  store i64 %21, ptr %20, align 4
  %22 = getelementptr inbounds nuw %struct.AV1PixelRect, ptr %7, i32 0, i32 2
  %23 = load i32, ptr %22, align 4
  %24 = getelementptr inbounds nuw %struct.AV1PixelRect, ptr %7, i32 0, i32 0
  %25 = load i32, ptr %24, align 4
  %26 = sub nsw i32 %23, %25
  store i32 %26, ptr %8, align 4
  %27 = getelementptr inbounds nuw %struct.AV1PixelRect, ptr %7, i32 0, i32 3
  %28 = load i32, ptr %27, align 4
  %29 = getelementptr inbounds nuw %struct.AV1PixelRect, ptr %7, i32 0, i32 1
  %30 = load i32, ptr %29, align 4
  %31 = sub nsw i32 %28, %30
  store i32 %31, ptr %9, align 4
  %32 = load ptr, ptr %5, align 8
  %33 = getelementptr inbounds nuw %struct.RestorationInfo, ptr %32, i32 0, i32 1
  %34 = load i32, ptr %33, align 4
  store i32 %34, ptr %10, align 4
  %35 = load i32, ptr %10, align 4
  %36 = load i32, ptr %8, align 4
  %37 = call i32 @av1_lr_count_units_in_tile(i32 noundef %35, i32 noundef %36)
  store i32 %37, ptr %11, align 4
  %38 = load i32, ptr %10, align 4
  %39 = load i32, ptr %9, align 4
  %40 = call i32 @av1_lr_count_units_in_tile(i32 noundef %38, i32 noundef %39)
  store i32 %40, ptr %12, align 4
  %41 = load i32, ptr %11, align 4
  %42 = load i32, ptr %12, align 4
  %43 = mul nsw i32 %41, %42
  %44 = load ptr, ptr %5, align 8
  %45 = getelementptr inbounds nuw %struct.RestorationInfo, ptr %44, i32 0, i32 2
  store i32 %43, ptr %45, align 8
  %46 = load i32, ptr %11, align 4
  %47 = load ptr, ptr %5, align 8
  %48 = getelementptr inbounds nuw %struct.RestorationInfo, ptr %47, i32 0, i32 4
  store i32 %46, ptr %48, align 8
  %49 = load i32, ptr %12, align 4
  %50 = load ptr, ptr %5, align 8
  %51 = getelementptr inbounds nuw %struct.RestorationInfo, ptr %50, i32 0, i32 3
  store i32 %49, ptr %51, align 4
  store i32 1, ptr %13, align 4
  %52 = load ptr, ptr %5, align 8
  %53 = getelementptr inbounds nuw %struct.RestorationInfo, ptr %52, i32 0, i32 2
  %54 = load i32, ptr %53, align 8
  %55 = mul nsw i32 1, %54
  store i32 %55, ptr %14, align 4
  %56 = load ptr, ptr %5, align 8
  %57 = getelementptr inbounds nuw %struct.RestorationInfo, ptr %56, i32 0, i32 5
  %58 = load ptr, ptr %57, align 8
  call void @aom_free(ptr noundef %58)
  br label %59

59:                                               ; preds = %3
  %60 = load i32, ptr %14, align 4
  %61 = sext i32 %60 to i64
  %62 = mul i64 64, %61
  %63 = call ptr @aom_memalign(i64 noundef 16, i64 noundef %62)
  %64 = load ptr, ptr %5, align 8
  %65 = getelementptr inbounds nuw %struct.RestorationInfo, ptr %64, i32 0, i32 5
  store ptr %63, ptr %65, align 8
  %66 = load ptr, ptr %5, align 8
  %67 = getelementptr inbounds nuw %struct.RestorationInfo, ptr %66, i32 0, i32 5
  %68 = load ptr, ptr %67, align 8
  %69 = icmp ne ptr %68, null
  br i1 %69, label %73, label %70

70:                                               ; preds = %59
  %71 = load ptr, ptr %4, align 8
  %72 = getelementptr inbounds nuw %struct.AV1Common, ptr %71, i32 0, i32 1
  call void (ptr, i32, ptr, ...) @aom_internal_error(ptr noundef %72, i32 noundef 2, ptr noundef @.str)
  br label %73

73:                                               ; preds = %70, %59
  br label %74

74:                                               ; preds = %73
  ret void
}