; Function Attrs: nounwind uwtable
define hidden void @av1_alloc_restoration_struct(ptr noundef %0, ptr noundef captures(none) initializes((8, 20)) %1, i32 noundef %2) local_unnamed_addr #2 {
  %.not.i = icmp eq i32 %2, 0
  br i1 %.not.i, label %av1_whole_frame_rect.exit, label %4

4:                                                ; preds = %3
  %5 = getelementptr inbounds nuw i8, ptr %0, i64 25280
  %6 = load i32, ptr %5, align 16
  %7 = icmp ne i32 %6, 0
  %8 = zext i1 %7 to i32
  %9 = getelementptr inbounds nuw i8, ptr %0, i64 25284
  %10 = load i32, ptr %9, align 4
  %11 = icmp ne i32 %10, 0
  %12 = zext i1 %11 to i32
  br label %av1_whole_frame_rect.exit

av1_whole_frame_rect.exit:                        ; preds = %3, %4
  %13 = phi i32 [ %8, %4 ], [ 0, %3 ]
  %14 = phi i32 [ %12, %4 ], [ 0, %3 ]
  %15 = getelementptr inbounds nuw i8, ptr %0, i64 460
  %16 = load i32, ptr %15, align 4
  %17 = shl nuw nsw i32 1, %14
  %18 = lshr i32 %17, 1
  %19 = add nsw i32 %18, %16
  %20 = ashr i32 %19, %14
  %21 = getelementptr inbounds nuw i8, ptr %0, i64 472
  %22 = load i32, ptr %21, align 8
  %23 = shl nuw nsw i32 1, %13
  %24 = lshr i32 %23, 1
  %25 = add nsw i32 %22, %24
  %26 = ashr i32 %25, %13
  %27 = getelementptr inbounds nuw i8, ptr %1, i64 4
  %28 = load i32, ptr %27, align 4
  %29 = ashr i32 %28, 1
  %30 = add nsw i32 %26, %29
  %31 = sdiv i32 %30, %28
  %spec.select.i = tail call range(i32 1, -2147483648) i32 @llvm.smax.i32(i32 %31, i32 1)
  %32 = add nsw i32 %20, %29
  %33 = sdiv i32 %32, %28
  %spec.select.i19 = tail call range(i32 1, -2147483648) i32 @llvm.smax.i32(i32 %33, i32 1)
  %34 = mul nuw nsw i32 %spec.select.i19, %spec.select.i
  %35 = getelementptr inbounds nuw i8, ptr %1, i64 8
  store i32 %34, ptr %35, align 8
  %36 = getelementptr inbounds nuw i8, ptr %1, i64 16
  store i32 %spec.select.i, ptr %36, align 8
  %37 = getelementptr inbounds nuw i8, ptr %1, i64 12
  store i32 %spec.select.i19, ptr %37, align 4
  %38 = getelementptr inbounds nuw i8, ptr %1, i64 24
  %39 = load ptr, ptr %38, align 8
  tail call void @aom_free(ptr noundef %39) #12
  %40 = zext nneg i32 %34 to i64
  %41 = shl nuw nsw i64 %40, 6
  %42 = tail call ptr @aom_memalign(i64 noundef 16, i64 noundef %41) #12
  store ptr %42, ptr %38, align 8
  %.not = icmp eq ptr %42, null
  br i1 %.not, label %43, label %45

43:                                               ; preds = %av1_whole_frame_rect.exit
  %44 = getelementptr inbounds nuw i8, ptr %0, i64 40
  tail call void (ptr, i32, ptr, ...) @aom_internal_error(ptr noundef nonnull %44, i32 noundef 2, ptr noundef nonnull @.str) #12
  br label %45

45:                                               ; preds = %av1_whole_frame_rect.exit, %43
  ret void
}